target datalayout = "e-m:e-p270:32:32-p271:32:32-p272:64:64-i64:64-i128:128-f80:128-n8:16:32:64-S128"
target triple = "x86_64-unknown-linux-gnu"

%"class.hermes::sem::Keywords" = type { ptr, ptr, ptr, ptr, ptr, ptr, ptr, ptr, ptr, ptr, ptr, ptr, ptr, ptr }
%"class.hermes::sem::SemanticValidator" = type { ptr, ptr, %"class.hermes::SourceErrorManager::SaveAndBufferMessages", ptr, i32, %"class.hermes::sem::Keywords", ptr, i8, i8, i32 }
%"class.hermes::SourceErrorManager::SaveAndBufferMessages" = type { ptr }
%"class.std::variant" = type { %"struct.std::__detail::__variant::_Variant_base.base", [7 x i8] }
%"struct.std::__detail::__variant::_Variant_base.base" = type { %"struct.std::__detail::__variant::_Move_assign_base.base" }
%"struct.std::__detail::__variant::_Move_assign_base.base" = type { %"struct.std::__detail::__variant::_Copy_assign_base.base" }
%"struct.std::__detail::__variant::_Copy_assign_base.base" = type { %"struct.std::__detail::__variant::_Move_ctor_base.base" }
%"struct.std::__detail::__variant::_Move_ctor_base.base" = type { %"struct.std::__detail::__variant::_Copy_ctor_base.base" }
%"struct.std::__detail::__variant::_Copy_ctor_base.base" = type { %"struct.std::__detail::__variant::_Variant_storage.base" }
%"struct.std::__detail::__variant::_Variant_storage.base" = type <{ %"union.std::__detail::__variant::_Variadic_union", i8 }>
%"union.std::__detail::__variant::_Variadic_union" = type { %"union.std::__detail::__variant::_Variadic_union.226" }
%"union.std::__detail::__variant::_Variadic_union.226" = type { %"union.std::__detail::__variant::_Variadic_union.228" }
%"union.std::__detail::__variant::_Variadic_union.228" = type { %"struct.std::__detail::__variant::_Uninitialized.229" }
%"struct.std::__detail::__variant::_Uninitialized.229" = type { ptr }
%"class.hermes::sem::FunctionContext" = type { ptr, ptr, ptr, ptr, ptr, ptr, ptr, ptr, ptr, ptr, i8, i32, %"class.llvh::DenseMap.70", %"class.hermes::sem::BlockContext", %"class.llvh::MapVector" }
%"class.llvh::DenseMap.70" = type <{ ptr, i32, i32, i32, [4 x i8] }>
%"class.hermes::sem::BlockContext" = type { ptr, ptr, ptr, ptr, i64 }
%"class.llvh::MapVector" = type { %"class.llvh::DenseMap.73", %"class.std::vector.76" }
%"class.llvh::DenseMap.73" = type <{ ptr, i32, i32, i32, [4 x i8] }>
%"class.std::vector.76" = type { %"struct.std::_Vector_base.77" }
%"struct.std::_Vector_base.77" = type { %"struct.std::_Vector_base<std::pair<const hermes::UniqueString *, llvh::SmallVector<hermes::ESTree::FunctionDeclarationNode *, 4>>, std::allocator<std::pair<const hermes::UniqueString *, llvh::SmallVector<hermes::ESTree::FunctionDeclarationNode *, 4>>>>::_Vector_impl" }
%"struct.std::_Vector_base<std::pair<const hermes::UniqueString *, llvh::SmallVector<hermes::ESTree::FunctionDeclarationNode *, 4>>, std::allocator<std::pair<const hermes::UniqueString *, llvh::SmallVector<hermes::ESTree::FunctionDeclarationNode *, 4>>>>::_Vector_impl" = type { %"struct.std::_Vector_base<std::pair<const hermes::UniqueString *, llvh::SmallVector<hermes::ESTree::FunctionDeclarationNode *, 4>>, std::allocator<std::pair<const hermes::UniqueString *, llvh::SmallVector<hermes::ESTree::FunctionDeclarationNode *, 4>>>>::_Vector_impl_data" }
%"struct.std::_Vector_base<std::pair<const hermes::UniqueString *, llvh::SmallVector<hermes::ESTree::FunctionDeclarationNode *, 4>>, std::allocator<std::pair<const hermes::UniqueString *, llvh::SmallVector<hermes::ESTree::FunctionDeclarationNode *, 4>>>>::_Vector_impl_data" = type { ptr, ptr, ptr }
%"class.hermes::ESTree::Node" = type { %"class.llvh::ilist_node", i32, i32, %"class.llvh::SMRange", %"class.llvh::SMLoc" }
%"class.llvh::ilist_node" = type { %"class.llvh::ilist_node_impl" }
%"class.llvh::ilist_node_impl" = type { %"class.llvh::ilist_node_base" }
%"class.llvh::ilist_node_base" = type { ptr, ptr }
%"class.llvh::SMRange" = type { %"class.llvh::SMLoc", %"class.llvh::SMLoc" }
%"class.llvh::SMLoc" = type { ptr }
%"class.hermes::ESTree::ImportSpecifierNode" = type { %"class.hermes::ESTree::Node", ptr, ptr, ptr }

; Function Attrs: mustprogress nounwind uwtable
define linkonce_odr hidden void @_ZN6hermes6ESTree24RecursiveVisitorDispatchINS_3sem17SemanticValidatorELb1EE5visitERS3_PNS_12UniqueStringEPNS0_4NodeE(ptr noundef nonnull align 8 dereferenceable(168) %0, ptr noundef %1, ptr noundef %2) #0 comdat align 2 {
entry:
  %.addr = alloca ptr, align 8
  %.addr1 = alloca ptr, align 8
  %.addr2 = alloca ptr, align 8
  store ptr %0, ptr %.addr, align 8
  store ptr %1, ptr %.addr1, align 8
  store ptr %2, ptr %.addr2, align 8
  ret void
}

; Function Attrs: mustprogress nounwind uwtable
define linkonce_odr hidden void @_ZN6hermes6ESTree24RecursiveVisitorDispatchINS_3sem17SemanticValidatorELb1EE13visitChildrenERS3_PNS0_19ImportSpecifierNodeE(ptr noundef nonnull align 8 dereferenceable(168) %v, ptr noundef %node) #0 comdat align 2 {
entry:
  %v.addr = alloca ptr, align 8
  %node.addr = alloca ptr, align 8
  %coerce = alloca %"class.std::variant", align 8
  %coerce2 = alloca %"class.std::variant", align 8
  store ptr %v, ptr %v.addr, align 8
  store ptr %node, ptr %node.addr, align 8
  %0 = load ptr, ptr %v.addr, align 8
  %1 = load ptr, ptr %node.addr, align 8
  %_imported = getelementptr inbounds %"class.hermes::ESTree::ImportSpecifierNode", ptr %1, i32 0, i32 1
  %2 = load ptr, ptr %_imported, align 8
  %3 = load ptr, ptr %node.addr, align 8
  %call = call { ptr, i8 } @_ZN6hermes6ESTree24RecursiveVisitorDispatchINS_3sem17SemanticValidatorELb1EE5visitERS3_PNS0_4NodeES7_(ptr noundef nonnull align 8 dereferenceable(168) %0, ptr noundef %2, ptr noundef %3)
  %4 = getelementptr inbounds { ptr, i8 }, ptr %coerce, i32 0, i32 0
  %5 = extractvalue { ptr, i8 } %call, 0
  store ptr %5, ptr %4, align 8
  %6 = getelementptr inbounds { ptr, i8 }, ptr %coerce, i32 0, i32 1
  %7 = extractvalue { ptr, i8 } %call, 1
  store i8 %7, ptr %6, align 8
  %8 = load ptr, ptr %v.addr, align 8
  %9 = load ptr, ptr %node.addr, align 8
  %_local = getelementptr inbounds %"class.hermes::ESTree::ImportSpecifierNode", ptr %9, i32 0, i32 2
  %10 = load ptr, ptr %_local, align 8
  %11 = load ptr, ptr %node.addr, align 8
  %call1 = call { ptr, i8 } @_ZN6hermes6ESTree24RecursiveVisitorDispatchINS_3sem17SemanticValidatorELb1EE5visitERS3_PNS0_4NodeES7_(ptr noundef nonnull align 8 dereferenceable(168) %8, ptr noundef %10, ptr noundef %11)
  %12 = getelementptr inbounds { ptr, i8 }, ptr %coerce2, i32 0, i32 0
  %13 = extractvalue { ptr, i8 } %call1, 0
  store ptr %13, ptr %12, align 8
  %14 = getelementptr inbounds { ptr, i8 }, ptr %coerce2, i32 0, i32 1
  %15 = extractvalue { ptr, i8 } %call1, 1
  store i8 %15, ptr %14, align 8
  %16 = load ptr, ptr %v.addr, align 8
  %17 = load ptr, ptr %node.addr, align 8
  %_importKind = getelementptr inbounds %"class.hermes::ESTree::ImportSpecifierNode", ptr %17, i32 0, i32 3
  %18 = load ptr, ptr %_importKind, align 8
  %19 = load ptr, ptr %node.addr, align 8
  call void @_ZN6hermes6ESTree24RecursiveVisitorDispatchINS_3sem17SemanticValidatorELb1EE5visitERS3_PNS_12UniqueStringEPNS0_4NodeE(ptr noundef nonnull align 8 dereferenceable(168) %16, ptr noundef %18, ptr noundef %19)
  ret void
}

; Function Attrs: mustprogress nounwind uwtable
define linkonce_odr hidden void @_ZN6hermes6ESTree19visitESTreeChildrenINS_3sem17SemanticValidatorENS0_19ImportSpecifierNodeEEEvRT_PT0_(ptr noundef nonnull align 8 dereferenceable(168) %v, ptr noundef %node) #0 comdat {
entry:
  %v.addr = alloca ptr, align 8
  %node.addr = alloca ptr, align 8
  store ptr %v, ptr %v.addr, align 8
  store ptr %node, ptr %node.addr, align 8
  %0 = load ptr, ptr %v.addr, align 8
  %1 = load ptr, ptr %node.addr, align 8
  call void @_ZN6hermes6ESTree24RecursiveVisitorDispatchINS_3sem17SemanticValidatorELb1EE13visitChildrenERS3_PNS0_19ImportSpecifierNodeE(ptr noundef nonnull align 8 dereferenceable(168) %0, ptr noundef %1)
  ret void
}

; Function Attrs: mustprogress nounwind uwtable
define linkonce_odr hidden noundef ptr @_ZN6hermes3sem17SemanticValidator11curFunctionEv(ptr noundef nonnull align 8 dereferenceable(168) %this) #0 comdat align 2 {
entry:
  %this.addr = alloca ptr, align 8
  store ptr %this, ptr %this.addr, align 8
  %this1 = load ptr, ptr %this.addr, align 8
  %funcCtx_ = getelementptr inbounds %"class.hermes::sem::SemanticValidator", ptr %this1, i32 0, i32 6
  %0 = load ptr, ptr %funcCtx_, align 8
  ret ptr %0
}

; Function Attrs: mustprogress nounwind uwtable
define hidden void @_ZN6hermes3sem17SemanticValidator5visitEPNS_6ESTree19ImportSpecifierNodeE(ptr noundef nonnull align 8 dereferenceable(168) %this, ptr noundef %importDecl) #0 align 2 {
entry:
  %this.addr = alloca ptr, align 8
  %importDecl.addr = alloca ptr, align 8
  store ptr %this, ptr %this.addr, align 8
  store ptr %importDecl, ptr %importDecl.addr, align 8
  %this1 = load ptr, ptr %this.addr, align 8
  %0 = load ptr, ptr %importDecl.addr, align 8
  %_local = getelementptr inbounds %"class.hermes::ESTree::ImportSpecifierNode", ptr %0, i32 0, i32 2
  %1 = load ptr, ptr %_local, align 8
  %call = call noundef ptr @_ZN6hermes3sem17SemanticValidator11curFunctionEv(ptr noundef nonnull align 8 dereferenceable(168) %this1)
  %varDecls = getelementptr inbounds %"class.hermes::sem::FunctionContext", ptr %call, i32 0, i32 5
  %2 = load ptr, ptr %varDecls, align 8
  %call2 = call noundef ptr @_ZN6hermes3sem17SemanticValidator11curFunctionEv(ptr noundef nonnull align 8 dereferenceable(168) %this1)
  %scopedDecls = getelementptr inbounds %"class.hermes::sem::FunctionContext", ptr %call2, i32 0, i32 6
  %3 = load ptr, ptr %scopedDecls, align 8
  call void @_ZN6hermes3sem17SemanticValidator24validateDeclarationNamesENS_18JavaScriptDeclKindEPNS_6ESTree4NodeEPN4llvh11SmallVectorINS0_12FunctionInfo7VarDeclELj4EEESB_(ptr noundef nonnull align 8 dereferenceable(168) %this1, i8 noundef zeroext 2, ptr noundef %1, ptr noundef %2, ptr noundef %3)
  %4 = load ptr, ptr %importDecl.addr, align 8
  call void @_ZN6hermes6ESTree19visitESTreeChildrenINS_3sem17SemanticValidatorENS0_19ImportSpecifierNodeEEEvRT_PT0_(ptr noundef nonnull align 8 dereferenceable(168) %this1, ptr noundef %4)
  ret void
}